target datalayout = "e-m:e-p270:32:32-p271:32:32-p272:64:64-i64:64-f80:128-n8:16:32:64-S128"
target triple = "x86_64-pc-linux-gnu"

@.str = private unnamed_addr constant [3 x i8] c"%d\00", align 1
@.str.1 = private unnamed_addr constant [3 x i8] c"%c\00", align 1
@.str.2 = private unnamed_addr constant [2 x i8] c"\0A\00", align 1

; Function Attrs: noinline nounwind uwtable
define dso_local void @main() #0 {
  %1 = alloca [50 x [100 x i8]], align 16
  %2 = alloca i32, align 4
  %3 = alloca i32, align 4
  %4 = alloca i32, align 4
  %5 = alloca i32, align 4
  %6 = alloca i32, align 4
  %7 = alloca [100 x i32], align 16
  %8 = call i32 (i8*, ...) @__isoc99_scanf(i8* getelementptr inbounds ([3 x i8], [3 x i8]* @.str, i64 0, i64 0), i32* %2)
  store i32 0, i32* %3, align 4
  store i32 0, i32* %5, align 4
  br label %9

9:                                                ; preds = %42, %0
  %10 = load i32, i32* %3, align 4
  %11 = load i32, i32* %2, align 4
  %12 = icmp sle i32 %10, %11
  br i1 %12, label %13, label %47

13:                                               ; preds = %9
  store i32 0, i32* %4, align 4
  br label %14

14:                                               ; preds = %38, %13
  %15 = load i32, i32* %3, align 4
  %16 = sext i32 %15 to i64
  %17 = getelementptr inbounds [50 x [100 x i8]], [50 x [100 x i8]]* %1, i64 0, i64 %16
  %18 = load i32, i32* %4, align 4
  %19 = sext i32 %18 to i64
  %20 = getelementptr inbounds [100 x i8], [100 x i8]* %17, i64 0, i64 %19
  %21 = call i32 (i8*, ...) @__isoc99_scanf(i8* getelementptr inbounds ([3 x i8], [3 x i8]* @.str.1, i64 0, i64 0), i8* %20)
  %22 = load i32, i32* %3, align 4
  %23 = sext i32 %22 to i64
  %24 = getelementptr inbounds [50 x [100 x i8]], [50 x [100 x i8]]* %1, i64 0, i64 %23
  %25 = load i32, i32* %4, align 4
  %26 = sext i32 %25 to i64
  %27 = getelementptr inbounds [100 x i8], [100 x i8]* %24, i64 0, i64 %26
  %28 = load i8, i8* %27, align 1
  %29 = sext i8 %28 to i32
  %30 = icmp eq i32 %29, 10
  br i1 %30, label %31, label %32

31:                                               ; preds = %14
  br label %41

32:                                               ; preds = %14
  %33 = load i32, i32* %4, align 4
  %34 = add nsw i32 %33, 1
  %35 = load i32, i32* %5, align 4
  %36 = sext i32 %35 to i64
  %37 = getelementptr inbounds [100 x i32], [100 x i32]* %7, i64 0, i64 %36
  store i32 %34, i32* %37, align 4
  br label %38

38:                                               ; preds = %32
  %39 = load i32, i32* %4, align 4
  %40 = add nsw i32 %39, 1
  store i32 %40, i32* %4, align 4
  br label %14

41:                                               ; preds = %31
  br label %42

42:                                               ; preds = %41
  %43 = load i32, i32* %3, align 4
  %44 = add nsw i32 %43, 1
  store i32 %44, i32* %3, align 4
  %45 = load i32, i32* %5, align 4
  %46 = add nsw i32 %45, 1
  store i32 %46, i32* %5, align 4
  br label %9

47:                                               ; preds = %9
  store i32 1, i32* %3, align 4
  br label %48

48:                                               ; preds = %175, %47
  %49 = load i32, i32* %3, align 4
  %50 = load i32, i32* %2, align 4
  %51 = icmp slt i32 %49, %50
  br i1 %51, label %52, label %178

52:                                               ; preds = %48
  %53 = load i32, i32* %3, align 4
  %54 = sext i32 %53 to i64
  %55 = getelementptr inbounds [100 x i32], [100 x i32]* %7, i64 0, i64 %54
  %56 = load i32, i32* %55, align 4
  store i32 %56, i32* %6, align 4
  %57 = load i32, i32* %3, align 4
  %58 = sext i32 %57 to i64
  %59 = getelementptr inbounds [50 x [100 x i8]], [50 x [100 x i8]]* %1, i64 0, i64 %58
  %60 = load i32, i32* %6, align 4
  %61 = sub nsw i32 %60, 2
  %62 = sext i32 %61 to i64
  %63 = getelementptr inbounds [100 x i8], [100 x i8]* %59, i64 0, i64 %62
  %64 = load i8, i8* %63, align 1
  %65 = sext i8 %64 to i32
  %66 = icmp eq i32 %65, 101
  br i1 %66, label %67, label %78

67:                                               ; preds = %52
  %68 = load i32, i32* %3, align 4
  %69 = sext i32 %68 to i64
  %70 = getelementptr inbounds [50 x [100 x i8]], [50 x [100 x i8]]* %1, i64 0, i64 %69
  %71 = load i32, i32* %6, align 4
  %72 = sub nsw i32 %71, 1
  %73 = sext i32 %72 to i64
  %74 = getelementptr inbounds [100 x i8], [100 x i8]* %70, i64 0, i64 %73
  %75 = load i8, i8* %74, align 1
  %76 = sext i8 %75 to i32
  %77 = icmp eq i32 %76, 114
  br i1 %77, label %100, label %78

78:                                               ; preds = %67, %52
  %79 = load i32, i32* %3, align 4
  %80 = sext i32 %79 to i64
  %81 = getelementptr inbounds [50 x [100 x i8]], [50 x [100 x i8]]* %1, i64 0, i64 %80
  %82 = load i32, i32* %6, align 4
  %83 = sub nsw i32 %82, 2
  %84 = sext i32 %83 to i64
  %85 = getelementptr inbounds [100 x i8], [100 x i8]* %81, i64 0, i64 %84
  %86 = load i8, i8* %85, align 1
  %87 = sext i8 %86 to i32
  %88 = icmp eq i32 %87, 108
  br i1 %88, label %89, label %120

89:                                               ; preds = %78
  %90 = load i32, i32* %3, align 4
  %91 = sext i32 %90 to i64
  %92 = getelementptr inbounds [50 x [100 x i8]], [50 x [100 x i8]]* %1, i64 0, i64 %91
  %93 = load i32, i32* %6, align 4
  %94 = sub nsw i32 %93, 1
  %95 = sext i32 %94 to i64
  %96 = getelementptr inbounds [100 x i8], [100 x i8]* %92, i64 0, i64 %95
  %97 = load i8, i8* %96, align 1
  %98 = sext i8 %97 to i32
  %99 = icmp eq i32 %98, 121
  br i1 %99, label %100, label %120

100:                                              ; preds = %89, %67
  store i32 0, i32* %4, align 4
  br label %101

101:                                              ; preds = %116, %100
  %102 = load i32, i32* %4, align 4
  %103 = load i32, i32* %6, align 4
  %104 = sub nsw i32 %103, 2
  %105 = icmp slt i32 %102, %104
  br i1 %105, label %106, label %119

106:                                              ; preds = %101
  %107 = load i32, i32* %3, align 4
  %108 = sext i32 %107 to i64
  %109 = getelementptr inbounds [50 x [100 x i8]], [50 x [100 x i8]]* %1, i64 0, i64 %108
  %110 = load i32, i32* %4, align 4
  %111 = sext i32 %110 to i64
  %112 = getelementptr inbounds [100 x i8], [100 x i8]* %109, i64 0, i64 %111
  %113 = load i8, i8* %112, align 1
  %114 = sext i8 %113 to i32
  %115 = call i32 (i8*, ...) @printf(i8* getelementptr inbounds ([3 x i8], [3 x i8]* @.str.1, i64 0, i64 0), i32 %114)
  br label %116

116:                                              ; preds = %106
  %117 = load i32, i32* %4, align 4
  %118 = add nsw i32 %117, 1
  store i32 %118, i32* %4, align 4
  br label %101

119:                                              ; preds = %101
  br label %120

120:                                              ; preds = %119, %89, %78
  %121 = load i32, i32* %3, align 4
  %122 = sext i32 %121 to i64
  %123 = getelementptr inbounds [50 x [100 x i8]], [50 x [100 x i8]]* %1, i64 0, i64 %122
  %124 = load i32, i32* %6, align 4
  %125 = sub nsw i32 %124, 3
  %126 = sext i32 %125 to i64
  %127 = getelementptr inbounds [100 x i8], [100 x i8]* %123, i64 0, i64 %126
  %128 = load i8, i8* %127, align 1
  %129 = sext i8 %128 to i32
  %130 = icmp eq i32 %129, 105
  br i1 %130, label %131, label %173

131:                                              ; preds = %120
  %132 = load i32, i32* %3, align 4
  %133 = sext i32 %132 to i64
  %134 = getelementptr inbounds [50 x [100 x i8]], [50 x [100 x i8]]* %1, i64 0, i64 %133
  %135 = load i32, i32* %6, align 4
  %136 = sub nsw i32 %135, 2
  %137 = sext i32 %136 to i64
  %138 = getelementptr inbounds [100 x i8], [100 x i8]* %134, i64 0, i64 %137
  %139 = load i8, i8* %138, align 1
  %140 = sext i8 %139 to i32
  %141 = icmp eq i32 %140, 110
  br i1 %141, label %142, label %173

142:                                              ; preds = %131
  %143 = load i32, i32* %3, align 4
  %144 = sext i32 %143 to i64
  %145 = getelementptr inbounds [50 x [100 x i8]], [50 x [100 x i8]]* %1, i64 0, i64 %144
  %146 = load i32, i32* %6, align 4
  %147 = sub nsw i32 %146, 1
  %148 = sext i32 %147 to i64
  %149 = getelementptr inbounds [100 x i8], [100 x i8]* %145, i64 0, i64 %148
  %150 = load i8, i8* %149, align 1
  %151 = sext i8 %150 to i32
  %152 = icmp eq i32 %151, 103
  br i1 %152, label %153, label %173

153:                                              ; preds = %142
  store i32 0, i32* %4, align 4
  br label %154

154:                                              ; preds = %169, %153
  %155 = load i32, i32* %4, align 4
  %156 = load i32, i32* %6, align 4
  %157 = sub nsw i32 %156, 3
  %158 = icmp slt i32 %155, %157
  br i1 %158, label %159, label %172

159:                                              ; preds = %154
  %160 = load i32, i32* %3, align 4
  %161 = sext i32 %160 to i64
  %162 = getelementptr inbounds [50 x [100 x i8]], [50 x [100 x i8]]* %1, i64 0, i64 %161
  %163 = load i32, i32* %4, align 4
  %164 = sext i32 %163 to i64
  %165 = getelementptr inbounds [100 x i8], [100 x i8]* %162, i64 0, i64 %164
  %166 = load i8, i8* %165, align 1
  %167 = sext i8 %166 to i32
  %168 = call i32 (i8*, ...) @printf(i8* getelementptr inbounds ([3 x i8], [3 x i8]* @.str.1, i64 0, i64 0), i32 %167)
  br label %169

169:                                              ; preds = %159
  %170 = load i32, i32* %4, align 4
  %171 = add nsw i32 %170, 1
  store i32 %171, i32* %4, align 4
  br label %154

172:                                              ; preds = %154
  br label %173

173:                                              ; preds = %172, %142, %131, %120
  %174 = call i32 (i8*, ...) @printf(i8* getelementptr inbounds ([2 x i8], [2 x i8]* @.str.2, i64 0, i64 0))
  br label %175

175:                                              ; preds = %173
  %176 = load i32, i32* %3, align 4
  %177 = add nsw i32 %176, 1
  store i32 %177, i32* %3, align 4
  br label %48

178:                                              ; preds = %48
  %179 = load i32, i32* %3, align 4
  %180 = sext i32 %179 to i64
  %181 = getelementptr inbounds [100 x i32], [100 x i32]* %7, i64 0, i64 %180
  %182 = load i32, i32* %181, align 4
  store i32 %182, i32* %6, align 4
  %183 = load i32, i32* %3, align 4
  %184 = sext i32 %183 to i64
  %185 = getelementptr inbounds [50 x [100 x i8]], [50 x [100 x i8]]* %1, i64 0, i64 %184
  %186 = load i32, i32* %6, align 4
  %187 = sub nsw i32 %186, 2
  %188 = sext i32 %187 to i64
  %189 = getelementptr inbounds [100 x i8], [100 x i8]* %185, i64 0, i64 %188
  %190 = load i8, i8* %189, align 1
  %191 = sext i8 %190 to i32
  %192 = icmp eq i32 %191, 101
  br i1 %192, label %193, label %204

193:                                              ; preds = %178
  %194 = load i32, i32* %3, align 4
  %195 = sext i32 %194 to i64
  %196 = getelementptr inbounds [50 x [100 x i8]], [50 x [100 x i8]]* %1, i64 0, i64 %195
  %197 = load i32, i32* %6, align 4
  %198 = sub nsw i32 %197, 1
  %199 = sext i32 %198 to i64
  %200 = getelementptr inbounds [100 x i8], [100 x i8]* %196, i64 0, i64 %199
  %201 = load i8, i8* %200, align 1
  %202 = sext i8 %201 to i32
  %203 = icmp eq i32 %202, 114
  br i1 %203, label %226, label %204

204:                                              ; preds = %193, %178
  %205 = load i32, i32* %3, align 4
  %206 = sext i32 %205 to i64
  %207 = getelementptr inbounds [50 x [100 x i8]], [50 x [100 x i8]]* %1, i64 0, i64 %206
  %208 = load i32, i32* %6, align 4
  %209 = sub nsw i32 %208, 2
  %210 = sext i32 %209 to i64
  %211 = getelementptr inbounds [100 x i8], [100 x i8]* %207, i64 0, i64 %210
  %212 = load i8, i8* %211, align 1
  %213 = sext i8 %212 to i32
  %214 = icmp eq i32 %213, 108
  br i1 %214, label %215, label %246

215:                                              ; preds = %204
  %216 = load i32, i32* %3, align 4
  %217 = sext i32 %216 to i64
  %218 = getelementptr inbounds [50 x [100 x i8]], [50 x [100 x i8]]* %1, i64 0, i64 %217
  %219 = load i32, i32* %6, align 4
  %220 = sub nsw i32 %219, 1
  %221 = sext i32 %220 to i64
  %222 = getelementptr inbounds [100 x i8], [100 x i8]* %218, i64 0, i64 %221
  %223 = load i8, i8* %222, align 1
  %224 = sext i8 %223 to i32
  %225 = icmp eq i32 %224, 121
  br i1 %225, label %226, label %246

226:                                              ; preds = %215, %193
  store i32 0, i32* %4, align 4
  br label %227

227:                                              ; preds = %242, %226
  %228 = load i32, i32* %4, align 4
  %229 = load i32, i32* %6, align 4
  %230 = sub nsw i32 %229, 2
  %231 = icmp slt i32 %228, %230
  br i1 %231, label %232, label %245

232:                                              ; preds = %227
  %233 = load i32, i32* %3, align 4
  %234 = sext i32 %233 to i64
  %235 = getelementptr inbounds [50 x [100 x i8]], [50 x [100 x i8]]* %1, i64 0, i64 %234
  %236 = load i32, i32* %4, align 4
  %237 = sext i32 %236 to i64
  %238 = getelementptr inbounds [100 x i8], [100 x i8]* %235, i64 0, i64 %237
  %239 = load i8, i8* %238, align 1
  %240 = sext i8 %239 to i32
  %241 = call i32 (i8*, ...) @printf(i8* getelementptr inbounds ([3 x i8], [3 x i8]* @.str.1, i64 0, i64 0), i32 %240)
  br label %242

242:                                              ; preds = %232
  %243 = load i32, i32* %4, align 4
  %244 = add nsw i32 %243, 1
  store i32 %244, i32* %4, align 4
  br label %227

245:                                              ; preds = %227
  br label %246

246:                                              ; preds = %245, %215, %204
  %247 = load i32, i32* %3, align 4
  %248 = sext i32 %247 to i64
  %249 = getelementptr inbounds [50 x [100 x i8]], [50 x [100 x i8]]* %1, i64 0, i64 %248
  %250 = load i32, i32* %6, align 4
  %251 = sub nsw i32 %250, 3
  %252 = sext i32 %251 to i64
  %253 = getelementptr inbounds [100 x i8], [100 x i8]* %249, i64 0, i64 %252
  %254 = load i8, i8* %253, align 1
  %255 = sext i8 %254 to i32
  %256 = icmp eq i32 %255, 105
  br i1 %256, label %257, label %299

257:                                              ; preds = %246
  %258 = load i32, i32* %3, align 4
  %259 = sext i32 %258 to i64
  %260 = getelementptr inbounds [50 x [100 x i8]], [50 x [100 x i8]]* %1, i64 0, i64 %259
  %261 = load i32, i32* %6, align 4
  %262 = sub nsw i32 %261, 2
  %263 = sext i32 %262 to i64
  %264 = getelementptr inbounds [100 x i8], [100 x i8]* %260, i64 0, i64 %263
  %265 = load i8, i8* %264, align 1
  %266 = sext i8 %265 to i32
  %267 = icmp eq i32 %266, 110
  br i1 %267, label %268, label %299

268:                                              ; preds = %257
  %269 = load i32, i32* %3, align 4
  %270 = sext i32 %269 to i64
  %271 = getelementptr inbounds [50 x [100 x i8]], [50 x [100 x i8]]* %1, i64 0, i64 %270
  %272 = load i32, i32* %6, align 4
  %273 = sub nsw i32 %272, 1
  %274 = sext i32 %273 to i64
  %275 = getelementptr inbounds [100 x i8], [100 x i8]* %271, i64 0, i64 %274
  %276 = load i8, i8* %275, align 1
  %277 = sext i8 %276 to i32
  %278 = icmp eq i32 %277, 103
  br i1 %278, label %279, label %299

279:                                              ; preds = %268
  store i32 0, i32* %4, align 4
  br label %280

280:                                              ; preds = %295, %279
  %281 = load i32, i32* %4, align 4
  %282 = load i32, i32* %6, align 4
  %283 = sub nsw i32 %282, 3
  %284 = icmp slt i32 %281, %283
  br i1 %284, label %285, label %298

285:                                              ; preds = %280
  %286 = load i32, i32* %3, align 4
  %287 = sext i32 %286 to i64
  %288 = getelementptr inbounds [50 x [100 x i8]], [50 x [100 x i8]]* %1, i64 0, i64 %287
  %289 = load i32, i32* %4, align 4
  %290 = sext i32 %289 to i64
  %291 = getelementptr inbounds [100 x i8], [100 x i8]* %288, i64 0, i64 %290
  %292 = load i8, i8* %291, align 1
  %293 = sext i8 %292 to i32
  %294 = call i32 (i8*, ...) @printf(i8* getelementptr inbounds ([3 x i8], [3 x i8]* @.str.1, i64 0, i64 0), i32 %293)
  br label %295

295:                                              ; preds = %285
  %296 = load i32, i32* %4, align 4
  %297 = add nsw i32 %296, 1
  store i32 %297, i32* %4, align 4
  br label %280

298:                                              ; preds = %280
  br label %299

299:                                              ; preds = %298, %268, %257, %246
  ret void
}